(dp1
S'(83, 8, 98, 62)'
p2
cnumpy.core.multiarray
scalar
p3
(cnumpy
dtype
p4
(S'f8'
I0
I1
tRp5
(I3
S'<'
NNNI-1
I-1
I0
tbS'\xd9\xa3\xd0\x95\xda\xa3E@'
tRp6
sS'(86, 3, 114, 85)'
p7
g3
(g5
S'\xf52\x8f\x0b\xf4\x9cR@'
tRp8
sS'(53, 50, 66, 15)'
p9
g3
(g5
S'\xc4~\xd9\xac\xd1*C@'
tRp10
sS'(52, 49, 76, 119)'
p11
g3
(g5
S'7\x05\x1e.\n\xabG@'
tRp12
sS'(19, 15, 99, 68)'
p13
g3
(g5
S'\x98\xf0lF\xdd\xf5R@'
tRp14
sS'(16, 37, 94, 88)'
p15
g3
(g5
S'y\x8a\x0b@J\x9bL@'
tRp16
sS'(62, 18, 95, 88)'
p17
g3
(g5
S'\xfcC\xdf\xccvxK@'
tRp18
sS'(55, 16, 97, 63)'
p19
g3
(g5
S'\xccQ\x16\xb7\xcd&H@'
tRp20
sS'(11, 78, 50, 105)'
p21
g3
(g5
S'\x05D\xdf\xccv\xf8I@'
tRp22
sS'(48, 60, 84, 37)'
p23
g3
(g5
S'\xedv\r\xa0\xd6\x1fC@'
tRp24
sS'(7, 41, 56, 45)'
p25
g3
(g5
S'\xc2\xad\xa1\xf9\xb3,B@'
tRp26
sS'(16, 109, 44, 42)'
p27
g3
(g5
S'V\x92\xd7LE\xa6S@'
tRp28
sS'(10, 15, 44, 29)'
p29
g3
(g5
S'W\x92\xd7LE\xe6C@'
tRp30
sS'(96, 68, 106, 0)'
p31
g3
(g5
S'\xc0w\xbb\x87\xbcM;@'
tRp32
sS'(79, 17, 99, 49)'
p33
g3
(g5
S'M\xe8\xf7\xb1\xcf\xc8@@'
tRp34
sS'(2, 70, 36, 93)'
p35
g3
(g5
S'\x84[C\xf3gYF@'
tRp36
sS'(52, 2, 80, 7)'
p37
g3
(g5
S'\xac\xb1\x07\x801\x12>@'
tRp38
sS'(91, 62, 109, 35)'
p39
g3
(g5
S"\xbd'\x06\x00\x8e\x8e0@"
tRp40
sS'(10, 106, 57, 69)'
p41
g3
(g5
S'4\xde\x82&\xb7)O@'
tRp42
sS'(44, 56, 115, 48)'
p43
g3
(g5
S'\xdaK\xab\xd9qCN@'
tRp44
sS'(8, 43, 63, 68)'
p45
g3
(g5
S'\x95\x86\xa5\xb9\xcc5M@'
tRp46
sS'(64, 53, 93, 95)'
p47
g3
(g5
S'\x08D\xdf\xccvx>@'
tRp48
sS'(25, 72, 116, 59)'
p49
g3
(g5
S'upj\x96\xf3OX@'
tRp50
sS'(3, 54, 61, 62)'
p51
g3
(g5
S'\xc0\xad\xa1\xf9\xb3\xacP@'
tRp52
sS'(10, 107, 48, 24)'
p53
g3
(g5
S'&\x0f~6X\xfeX@'
tRp54
sS'(19, 15, 88, 1)'
p55
g3
(g5
S'\xa8\xb1\x07\x801\x12T@'
tRp56
sS'(55, 56, 75, 89)'
p57
g3
(g5
S'Yc\x0f\x00c\xa4D@'
tRp58
sS'(56, 54, 94, 70)'
p59
g3
(g5
S'Bh\xc7\x95\x05\xceA@'
tRp60
sS'(70, 116, 86, 86)'
p61
g3
(g5
S'\x1f\xdfs\xfdGx1@'
tRp62
sS'(15, 75, 32, 105)'
p63
g3
(g5
S'\xdazs&T\x85B@'
tRp64
s.